target datalayout = "e-m:e-p270:32:32-p271:32:32-p272:64:64-i64:64-i128:128-f80:128-n8:16:32:64-S128"
target triple = "x86_64-unknown-linux-gnu"

%struct.geoArray = type { ptr, i64, i64 }
%struct.geoPoint = type { double, double, double, double, ptr }

; Function Attrs: nounwind uwtable
define dso_local void @geoArrayFree(ptr noundef %ga) #0 {
entry:
  %ga.addr = alloca ptr, align 8
  %i = alloca i64, align 8
  store ptr %ga, ptr %ga.addr, align 8
  store i64 0, ptr %i, align 8
  br label %for.cond

for.cond:                                         ; preds = %for.inc, %entry
  %0 = load i64, ptr %i, align 8
  %1 = load ptr, ptr %ga.addr, align 8
  %used = getelementptr inbounds %struct.geoArray, ptr %1, i32 0, i32 2
  %2 = load i64, ptr %used, align 8
  %cmp = icmp ult i64 %0, %2
  br i1 %cmp, label %for.body, label %for.end

for.body:                                         ; preds = %for.cond
  %3 = load ptr, ptr %ga.addr, align 8
  %array = getelementptr inbounds %struct.geoArray, ptr %3, i32 0, i32 0
  %4 = load ptr, ptr %array, align 8
  %5 = load i64, ptr %i, align 8
  %arrayidx = getelementptr inbounds %struct.geoPoint, ptr %4, i64 %5
  %member = getelementptr inbounds %struct.geoPoint, ptr %arrayidx, i32 0, i32 4
  %6 = load ptr, ptr %member, align 8
  call void @sdsfree(ptr noundef %6)
  br label %for.inc

for.inc:                                          ; preds = %for.body
  %7 = load i64, ptr %i, align 8
  %inc = add i64 %7, 1
  store i64 %inc, ptr %i, align 8
  br label %for.cond, !llvm.loop !5

for.end:                                          ; preds = %for.cond
  %8 = load ptr, ptr %ga.addr, align 8
  %array1 = getelementptr inbounds %struct.geoArray, ptr %8, i32 0, i32 0
  %9 = load ptr, ptr %array1, align 8
  call void @zfree(ptr noundef %9)
  %10 = load ptr, ptr %ga.addr, align 8
  call void @zfree(ptr noundef %10)
  ret void
}