; Function Attrs: nounwind uwtable
define dso_local void @geoArrayFree(ptr noundef %ga) local_unnamed_addr #0 {
entry:
  %used = getelementptr inbounds i8, ptr %ga, i64 16
  %0 = load i64, ptr %used, align 8
  %cmp6.not = icmp eq i64 %0, 0
  br i1 %cmp6.not, label %for.end, label %for.body

for.body:                                         ; preds = %entry, %for.body
  %i.07 = phi i64 [ %inc, %for.body ], [ 0, %entry ]
  %1 = load ptr, ptr %ga, align 8
  %member = getelementptr inbounds %struct.geoPoint, ptr %1, i64 %i.07, i32 4
  %2 = load ptr, ptr %member, align 8
  tail call void @sdsfree(ptr noundef %2) #14
  %inc = add nuw i64 %i.07, 1
  %3 = load i64, ptr %used, align 8
  %cmp = icmp ult i64 %inc, %3
  br i1 %cmp, label %for.body, label %for.end, !llvm.loop !5

for.end:                                          ; preds = %for.body, %entry
  %4 = load ptr, ptr %ga, align 8
  tail call void @zfree(ptr noundef %4) #14
  tail call void @zfree(ptr noundef nonnull %ga) #14
  ret void
}